target datalayout = "e-m:e-p270:32:32-p271:32:32-p272:64:64-i64:64-i128:128-f80:128-n8:16:32:64-S128"
target triple = "x86_64-pc-linux-gnu"

%"class.std::_Function_base" = type { %"union.std::_Any_data", ptr }
%"union.std::_Any_data" = type { %"union.std::_Nocopy_types" }
%"union.std::_Nocopy_types" = type { { i64, i64 } }
%"class.gmx::NoseHooverChainsElement" = type { %"class.gmx::ISimulatorElement", %"class.gmx::ArrayRef.95", %"class.std::function.447", i32, i32, double, i32, i32, i32, i64, ptr, ptr, ptr }
%"class.gmx::ISimulatorElement" = type { ptr }
%"class.gmx::ArrayRef.95" = type { %"struct.gmx::ArrayRefIter.96", %"struct.gmx::ArrayRefIter.96" }
%"struct.gmx::ArrayRefIter.96" = type { ptr }
%"class.std::function.447" = type { %"class.std::_Function_base", ptr }
%class.anon.480 = type { i8 }

@.str.7 = private unnamed_addr constant [143 x i8] c"generated/home/dtcxzyw/WorkSpace/Projects/compilers/llvm-opt-benchmark/bench/gromacs/gromacs/src/gromacs/modularsimulator/nosehooverchains.cpp\00", align 1
@.str.46 = private unnamed_addr constant [57 x i8] c"!(nhcUsage_ == NhcUsage::System && !propagatorCallback_)\00", align 1
@.str.47 = private unnamed_addr constant [216 x i8] c"Nose-Hoover chain element was not connected to a propagator.\0AConnection to a propagator element is needed to scale the velocities.\0AUse connectWithPropagator(...) before building the ModularSimulatorAlgorithm object.\00", align 1
@"__PRETTY_FUNCTION__._ZZN3gmx23NoseHooverChainsElement12elementSetupEvENK3$_0clEv" = private unnamed_addr constant [89 x i8] c"auto gmx::NoseHooverChainsElement::elementSetup()::(anonymous class)::operator()() const\00", align 1

; Function Attrs: noinline noreturn nounwind uwtable
define linkonce_odr hidden void @__clang_call_terminate(ptr noundef %0) #5 comdat {
  %2 = call ptr @__cxa_begin_catch(ptr %0) #21
  call void @_ZSt9terminatev() #23
  unreachable
}

; Function Attrs: mustprogress nounwind uwtable
define linkonce_odr noundef zeroext i1 @_ZNKSt14_Function_base8_M_emptyEv(ptr noundef nonnull align 8 dereferenceable(24) %0) #0 comdat align 2 {
  %2 = alloca ptr, align 8
  store ptr %0, ptr %2, align 8, !tbaa !668
  %3 = load ptr, ptr %2, align 8
  %4 = getelementptr inbounds nuw %"class.std::_Function_base", ptr %3, i32 0, i32 1
  %5 = load ptr, ptr %4, align 8, !tbaa !339
  %6 = icmp ne ptr %5, null
  %7 = xor i1 %6, true
  ret i1 %7
}

; Function Attrs: inlinehint mustprogress uwtable
define internal void @"_ZZN3gmx23NoseHooverChainsElement12elementSetupEvENK3$_0clEv"(ptr noundef nonnull align 1 dereferenceable(1) %0) #8 align 2 {
  %2 = alloca ptr, align 8
  store ptr %0, ptr %2, align 8, !tbaa !101
  call void @_ZN3gmx8internal13assertHandlerEPKcS2_S2_S2_i(ptr noundef @.str.46, ptr noundef @.str.47, ptr noundef @"__PRETTY_FUNCTION__._ZZN3gmx23NoseHooverChainsElement12elementSetupEvENK3$_0clEv", ptr noundef @.str.7, i32 noundef 671) #24
  unreachable
}

; Function Attrs: mustprogress nounwind uwtable
define linkonce_odr noundef zeroext i1 @_ZNKSt8functionIFvlEEcvbEv(ptr noundef nonnull align 8 dereferenceable(32) %0) #0 comdat align 2 personality ptr @__gxx_personality_v0 {
  %2 = alloca ptr, align 8
  store ptr %0, ptr %2, align 8, !tbaa !1049
  %3 = load ptr, ptr %2, align 8
  %4 = invoke noundef zeroext i1 @_ZNKSt14_Function_base8_M_emptyEv(ptr noundef nonnull align 8 dereferenceable(24) %3)
          to label %5 unwind label %7

5:                                                ; preds = %1
  %6 = xor i1 %4, true
  ret i1 %6

7:                                                ; preds = %1
  %8 = landingpad { ptr, i32 }
          catch ptr null
  %9 = extractvalue { ptr, i32 } %8, 0
  call void @__clang_call_terminate(ptr %9) #23
  unreachable
}

; Function Attrs: mustprogress uwtable
define void @_ZN3gmx23NoseHooverChainsElement12elementSetupEv(ptr noundef nonnull align 8 dereferenceable(120) %0) unnamed_addr #1 align 2 {
  %2 = alloca ptr, align 8
  %3 = alloca %class.anon.480, align 1
  store ptr %0, ptr %2, align 8, !tbaa !37
  %4 = load ptr, ptr %2, align 8
  %5 = getelementptr inbounds nuw %"class.gmx::NoseHooverChainsElement", ptr %4, i32 0, i32 6
  %6 = load i32, ptr %5, align 8, !tbaa !63
  %7 = icmp eq i32 %6, 0
  call void @llvm.lifetime.start.p0(i64 1, ptr %3) #21
  br i1 %7, label %8, label %11

8:                                                ; preds = %1
  %9 = getelementptr inbounds nuw %"class.gmx::NoseHooverChainsElement", ptr %4, i32 0, i32 2
  %10 = call noundef zeroext i1 @_ZNKSt8functionIFvlEEcvbEv(ptr noundef nonnull align 8 dereferenceable(32) %9) #21
  br i1 %10, label %11, label %12

11:                                               ; preds = %8, %1
  br label %13

12:                                               ; preds = %8
  call void @"_ZZN3gmx23NoseHooverChainsElement12elementSetupEvENK3$_0clEv"(ptr noundef nonnull align 1 dereferenceable(1) %3)
  br label %13

13:                                               ; preds = %12, %11
  call void @llvm.lifetime.end.p0(i64 1, ptr %3) #21
  ret void
}