; Function Attrs: mustprogress uwtable
define void @_ZN3gmx23NoseHooverChainsElement12elementSetupEv(ptr noundef nonnull readonly align 8 captures(none) dereferenceable(120) %0) unnamed_addr #1 align 2 personality ptr @__gxx_personality_v0 {
  %2 = getelementptr inbounds nuw i8, ptr %0, i64 72
  %3 = load i32, ptr %2, align 8, !tbaa !80
  %4 = icmp ne i32 %3, 0
  %5 = getelementptr inbounds nuw i8, ptr %0, i64 40
  %6 = load ptr, ptr %5, align 8
  %.not.i.i = icmp ne ptr %6, null
  %or.cond = select i1 %4, i1 true, i1 %.not.i.i
  br i1 %or.cond, label %8, label %7

7:                                                ; preds = %1
  tail call void @_ZN3gmx8internal13assertHandlerEPKcS2_S2_S2_i(ptr noundef nonnull @.str.46, ptr noundef nonnull @.str.47, ptr noundef nonnull @"__PRETTY_FUNCTION__._ZZN3gmx23NoseHooverChainsElement12elementSetupEvENK3$_0clEv", ptr noundef nonnull @.str.7, i32 noundef 671) #32
  unreachable

8:                                                ; preds = %1
  ret void
}